target datalayout = "e-m:e-p270:32:32-p271:32:32-p272:64:64-i64:64-i128:128-f80:128-n8:16:32:64-S128"
target triple = "x86_64-pc-linux-gnu"

%struct.AVChannelLayout = type { i32, i32, %union.anon.1, ptr }
%union.anon.1 = type { i64 }
%struct.AVFilterContext = type { ptr, ptr, ptr, ptr, ptr, i32, ptr, ptr, i32, ptr, ptr, i32, i32, ptr, ptr, ptr, ptr, i32, ptr, i32, i32 }
%struct.HaasContext = type { ptr, i32, double, double, i32, i32, i32, double, double, double, double, double, double, double, ptr, i64, i32, [2 x i32], [2 x double], [2 x double], double, double }
%struct.AVFilterLink = type { ptr, ptr, ptr, ptr, i32, i32, i32, i32, %struct.AVRational, i32, i32, i32, %struct.AVChannelLayout, %struct.AVRational, ptr, i32, %struct.AVFilterFormatsConfig, %struct.AVFilterFormatsConfig }
%struct.AVRational = type { i32, i32 }
%struct.AVFilterFormatsConfig = type { ptr, ptr, ptr, ptr, ptr }

; Function Attrs: nounwind uwtable
define internal i32 @config_input(ptr noundef %0) #1 {
  %2 = alloca i32, align 4
  %3 = alloca ptr, align 8
  %4 = alloca ptr, align 8
  %5 = alloca ptr, align 8
  %6 = alloca i64, align 8
  %7 = alloca i64, align 8
  %8 = alloca i32, align 4
  store ptr %0, ptr %3, align 8, !tbaa !31
  call void @llvm.lifetime.start.p0(i64 8, ptr %4) #5
  %9 = load ptr, ptr %3, align 8, !tbaa !31
  %10 = getelementptr inbounds nuw %struct.AVFilterLink, ptr %9, i32 0, i32 2
  %11 = load ptr, ptr %10, align 8, !tbaa !35
  store ptr %11, ptr %4, align 8, !tbaa !4
  call void @llvm.lifetime.start.p0(i64 8, ptr %5) #5
  %12 = load ptr, ptr %4, align 8, !tbaa !4
  %13 = getelementptr inbounds nuw %struct.AVFilterContext, ptr %12, i32 0, i32 9
  %14 = load ptr, ptr %13, align 8, !tbaa !9
  store ptr %14, ptr %5, align 8, !tbaa !22
  call void @llvm.lifetime.start.p0(i64 8, ptr %6) #5
  %15 = load ptr, ptr %3, align 8, !tbaa !31
  %16 = getelementptr inbounds nuw %struct.AVFilterLink, ptr %15, i32 0, i32 11
  %17 = load i32, ptr %16, align 8, !tbaa !61
  %18 = mul nsw i32 %17, 40
  %19 = sitofp i32 %18 to double
  %20 = fmul nsz double %19, 1.000000e-03
  %21 = fptoui double %20 to i64
  store i64 %21, ptr %6, align 8, !tbaa !62
  call void @llvm.lifetime.start.p0(i64 8, ptr %7) #5
  store i64 1, ptr %7, align 8, !tbaa !62
  br label %22

22:                                               ; preds = %26, %1
  %23 = load i64, ptr %7, align 8, !tbaa !62
  %24 = load i64, ptr %6, align 8, !tbaa !62
  %25 = icmp ult i64 %23, %24
  br i1 %25, label %26, label %29

26:                                               ; preds = %22
  %27 = load i64, ptr %7, align 8, !tbaa !62
  %28 = shl i64 %27, 1
  store i64 %28, ptr %7, align 8, !tbaa !62
  br label %22, !llvm.loop !63

29:                                               ; preds = %22
  %30 = load ptr, ptr %5, align 8, !tbaa !22
  %31 = getelementptr inbounds nuw %struct.HaasContext, ptr %30, i32 0, i32 14
  call void @av_freep(ptr noundef %31)
  %32 = load i64, ptr %7, align 8, !tbaa !62
  %33 = call noalias ptr @av_calloc(i64 noundef %32, i64 noundef 8)
  %34 = load ptr, ptr %5, align 8, !tbaa !22
  %35 = getelementptr inbounds nuw %struct.HaasContext, ptr %34, i32 0, i32 14
  store ptr %33, ptr %35, align 8, !tbaa !49
  %36 = load ptr, ptr %5, align 8, !tbaa !22
  %37 = getelementptr inbounds nuw %struct.HaasContext, ptr %36, i32 0, i32 14
  %38 = load ptr, ptr %37, align 8, !tbaa !49
  %39 = icmp ne ptr %38, null
  br i1 %39, label %41, label %40

40:                                               ; preds = %29
  store i32 -12, ptr %2, align 4
  store i32 1, ptr %8, align 4
  br label %153

41:                                               ; preds = %29
  %42 = load i64, ptr %7, align 8, !tbaa !62
  %43 = load ptr, ptr %5, align 8, !tbaa !22
  %44 = getelementptr inbounds nuw %struct.HaasContext, ptr %43, i32 0, i32 15
  store i64 %42, ptr %44, align 8, !tbaa !24
  %45 = load ptr, ptr %5, align 8, !tbaa !22
  %46 = getelementptr inbounds nuw %struct.HaasContext, ptr %45, i32 0, i32 16
  store i32 0, ptr %46, align 8, !tbaa !56
  %47 = load ptr, ptr %5, align 8, !tbaa !22
  %48 = getelementptr inbounds nuw %struct.HaasContext, ptr %47, i32 0, i32 2
  %49 = load double, ptr %48, align 8, !tbaa !64
  %50 = fmul nsz double %49, 1.000000e-03
  %51 = load ptr, ptr %3, align 8, !tbaa !31
  %52 = getelementptr inbounds nuw %struct.AVFilterLink, ptr %51, i32 0, i32 11
  %53 = load i32, ptr %52, align 8, !tbaa !61
  %54 = sitofp i32 %53 to double
  %55 = fmul nsz double %50, %54
  %56 = fptoui double %55 to i32
  %57 = load ptr, ptr %5, align 8, !tbaa !22
  %58 = getelementptr inbounds nuw %struct.HaasContext, ptr %57, i32 0, i32 17
  %59 = getelementptr inbounds [2 x i32], ptr %58, i64 0, i64 0
  store i32 %56, ptr %59, align 4, !tbaa !30
  %60 = load ptr, ptr %5, align 8, !tbaa !22
  %61 = getelementptr inbounds nuw %struct.HaasContext, ptr %60, i32 0, i32 3
  %62 = load double, ptr %61, align 8, !tbaa !65
  %63 = fmul nsz double %62, 1.000000e-03
  %64 = load ptr, ptr %3, align 8, !tbaa !31
  %65 = getelementptr inbounds nuw %struct.AVFilterLink, ptr %64, i32 0, i32 11
  %66 = load i32, ptr %65, align 8, !tbaa !61
  %67 = sitofp i32 %66 to double
  %68 = fmul nsz double %63, %67
  %69 = fptoui double %68 to i32
  %70 = load ptr, ptr %5, align 8, !tbaa !22
  %71 = getelementptr inbounds nuw %struct.HaasContext, ptr %70, i32 0, i32 17
  %72 = getelementptr inbounds [2 x i32], ptr %71, i64 0, i64 1
  store i32 %69, ptr %72, align 4, !tbaa !30
  %73 = load ptr, ptr %5, align 8, !tbaa !22
  %74 = getelementptr inbounds nuw %struct.HaasContext, ptr %73, i32 0, i32 4
  %75 = load i32, ptr %74, align 8, !tbaa !66
  %76 = icmp ne i32 %75, 0
  %77 = select nsz i1 %76, double 1.000000e+00, double -1.000000e+00
  %78 = load ptr, ptr %5, align 8, !tbaa !22
  %79 = getelementptr inbounds nuw %struct.HaasContext, ptr %78, i32 0, i32 20
  store double %77, ptr %79, align 8, !tbaa !67
  %80 = load ptr, ptr %5, align 8, !tbaa !22
  %81 = getelementptr inbounds nuw %struct.HaasContext, ptr %80, i32 0, i32 5
  %82 = load i32, ptr %81, align 4, !tbaa !68
  %83 = icmp ne i32 %82, 0
  %84 = select nsz i1 %83, double 1.000000e+00, double -1.000000e+00
  %85 = load ptr, ptr %5, align 8, !tbaa !22
  %86 = getelementptr inbounds nuw %struct.HaasContext, ptr %85, i32 0, i32 21
  store double %84, ptr %86, align 8, !tbaa !69
  %87 = load ptr, ptr %5, align 8, !tbaa !22
  %88 = getelementptr inbounds nuw %struct.HaasContext, ptr %87, i32 0, i32 10
  %89 = load double, ptr %88, align 8, !tbaa !70
  %90 = fadd nsz double %89, 1.000000e+00
  %91 = fdiv nsz double %90, 2.000000e+00
  %92 = load ptr, ptr %5, align 8, !tbaa !22
  %93 = getelementptr inbounds nuw %struct.HaasContext, ptr %92, i32 0, i32 8
  %94 = load double, ptr %93, align 8, !tbaa !71
  %95 = fmul nsz double %91, %94
  %96 = load ptr, ptr %5, align 8, !tbaa !22
  %97 = getelementptr inbounds nuw %struct.HaasContext, ptr %96, i32 0, i32 20
  %98 = load double, ptr %97, align 8, !tbaa !67
  %99 = fmul nsz double %95, %98
  %100 = load ptr, ptr %5, align 8, !tbaa !22
  %101 = getelementptr inbounds nuw %struct.HaasContext, ptr %100, i32 0, i32 18
  %102 = getelementptr inbounds [2 x double], ptr %101, i64 0, i64 0
  store double %99, ptr %102, align 8, !tbaa !47
  %103 = load ptr, ptr %5, align 8, !tbaa !22
  %104 = getelementptr inbounds nuw %struct.HaasContext, ptr %103, i32 0, i32 10
  %105 = load double, ptr %104, align 8, !tbaa !70
  %106 = fadd nsz double %105, 1.000000e+00
  %107 = fdiv nsz double %106, 2.000000e+00
  %108 = fsub nsz double 1.000000e+00, %107
  %109 = load ptr, ptr %5, align 8, !tbaa !22
  %110 = getelementptr inbounds nuw %struct.HaasContext, ptr %109, i32 0, i32 8
  %111 = load double, ptr %110, align 8, !tbaa !71
  %112 = fmul nsz double %108, %111
  %113 = load ptr, ptr %5, align 8, !tbaa !22
  %114 = getelementptr inbounds nuw %struct.HaasContext, ptr %113, i32 0, i32 20
  %115 = load double, ptr %114, align 8, !tbaa !67
  %116 = fmul nsz double %112, %115
  %117 = load ptr, ptr %5, align 8, !tbaa !22
  %118 = getelementptr inbounds nuw %struct.HaasContext, ptr %117, i32 0, i32 19
  %119 = getelementptr inbounds [2 x double], ptr %118, i64 0, i64 0
  store double %116, ptr %119, align 8, !tbaa !47
  %120 = load ptr, ptr %5, align 8, !tbaa !22
  %121 = getelementptr inbounds nuw %struct.HaasContext, ptr %120, i32 0, i32 11
  %122 = load double, ptr %121, align 8, !tbaa !72
  %123 = fadd nsz double %122, 1.000000e+00
  %124 = fdiv nsz double %123, 2.000000e+00
  %125 = load ptr, ptr %5, align 8, !tbaa !22
  %126 = getelementptr inbounds nuw %struct.HaasContext, ptr %125, i32 0, i32 9
  %127 = load double, ptr %126, align 8, !tbaa !73
  %128 = fmul nsz double %124, %127
  %129 = load ptr, ptr %5, align 8, !tbaa !22
  %130 = getelementptr inbounds nuw %struct.HaasContext, ptr %129, i32 0, i32 21
  %131 = load double, ptr %130, align 8, !tbaa !69
  %132 = fmul nsz double %128, %131
  %133 = load ptr, ptr %5, align 8, !tbaa !22
  %134 = getelementptr inbounds nuw %struct.HaasContext, ptr %133, i32 0, i32 18
  %135 = getelementptr inbounds [2 x double], ptr %134, i64 0, i64 1
  store double %132, ptr %135, align 8, !tbaa !47
  %136 = load ptr, ptr %5, align 8, !tbaa !22
  %137 = getelementptr inbounds nuw %struct.HaasContext, ptr %136, i32 0, i32 11
  %138 = load double, ptr %137, align 8, !tbaa !72
  %139 = fadd nsz double %138, 1.000000e+00
  %140 = fdiv nsz double %139, 2.000000e+00
  %141 = fsub nsz double 1.000000e+00, %140
  %142 = load ptr, ptr %5, align 8, !tbaa !22
  %143 = getelementptr inbounds nuw %struct.HaasContext, ptr %142, i32 0, i32 9
  %144 = load double, ptr %143, align 8, !tbaa !73
  %145 = fmul nsz double %141, %144
  %146 = load ptr, ptr %5, align 8, !tbaa !22
  %147 = getelementptr inbounds nuw %struct.HaasContext, ptr %146, i32 0, i32 21
  %148 = load double, ptr %147, align 8, !tbaa !69
  %149 = fmul nsz double %145, %148
  %150 = load ptr, ptr %5, align 8, !tbaa !22
  %151 = getelementptr inbounds nuw %struct.HaasContext, ptr %150, i32 0, i32 19
  %152 = getelementptr inbounds [2 x double], ptr %151, i64 0, i64 1
  store double %149, ptr %152, align 8, !tbaa !47
  store i32 0, ptr %2, align 4
  store i32 1, ptr %8, align 4
  br label %153

153:                                              ; preds = %41, %40
  call void @llvm.lifetime.end.p0(i64 8, ptr %7) #5
  call void @llvm.lifetime.end.p0(i64 8, ptr %6) #5
  call void @llvm.lifetime.end.p0(i64 8, ptr %5) #5
  call void @llvm.lifetime.end.p0(i64 8, ptr %4) #5
  %154 = load i32, ptr %2, align 4
  ret i32 %154
}